target datalayout = "e-m:e-p270:32:32-p271:32:32-p272:64:64-i64:64-i128:128-f80:128-n8:16:32:64-S128"
target triple = "x86_64-pc-linux-gnu"

%"class.std::vector" = type { %"struct.std::_Vector_base" }
%"struct.std::_Vector_base" = type { %"struct.std::_Vector_base<unsigned char, std::allocator<unsigned char>>::_Vector_impl" }
%"struct.std::_Vector_base<unsigned char, std::allocator<unsigned char>>::_Vector_impl" = type { %"struct.std::_Vector_base<unsigned char, std::allocator<unsigned char>>::_Vector_impl_data" }
%"struct.std::_Vector_base<unsigned char, std::allocator<unsigned char>>::_Vector_impl_data" = type { ptr, ptr, ptr }
%"class.ZXing::BitArray" = type { %"class.std::vector" }

; Function Attrs: mustprogress nounwind optsize uwtable
define linkonce_odr noundef i32 @_ZN5ZXing11narrow_castIimEET_OT0_(ptr noundef nonnull align 8 dereferenceable(8) %0) #2 comdat {
  %2 = alloca ptr, align 8
  store ptr %0, ptr %2, align 8, !tbaa !120
  %3 = load ptr, ptr %2, align 8, !tbaa !120
  %4 = load i64, ptr %3, align 8, !tbaa !39
  %5 = trunc i64 %4 to i32
  ret i32 %5
}

; Function Attrs: mustprogress nounwind optsize uwtable
define linkonce_odr noundef i64 @_ZNKSt6vectorIhSaIhEE4sizeEv(ptr noundef nonnull align 8 dereferenceable(24) %0) #2 comdat align 2 {
  %2 = alloca ptr, align 8
  store ptr %0, ptr %2, align 8, !tbaa !123
  %3 = load ptr, ptr %2, align 8
  %4 = getelementptr inbounds nuw %"struct.std::_Vector_base", ptr %3, i32 0, i32 0
  %5 = getelementptr inbounds nuw %"struct.std::_Vector_base<unsigned char, std::allocator<unsigned char>>::_Vector_impl_data", ptr %4, i32 0, i32 1
  %6 = load ptr, ptr %5, align 8, !tbaa !134
  %7 = getelementptr inbounds nuw %"struct.std::_Vector_base", ptr %3, i32 0, i32 0
  %8 = getelementptr inbounds nuw %"struct.std::_Vector_base<unsigned char, std::allocator<unsigned char>>::_Vector_impl_data", ptr %7, i32 0, i32 0
  %9 = load ptr, ptr %8, align 8, !tbaa !138
  %10 = ptrtoint ptr %6 to i64
  %11 = ptrtoint ptr %9 to i64
  %12 = sub i64 %10, %11
  ret i64 %12
}

; Function Attrs: noinline noreturn nounwind optsize uwtable
define linkonce_odr hidden void @__clang_call_terminate(ptr noundef %0) #7 comdat {
  %2 = call ptr @__cxa_begin_catch(ptr %0) #18
  call void @_ZSt9terminatev() #22
  unreachable
}

; Function Attrs: mustprogress nounwind optsize uwtable
define linkonce_odr noundef i32 @_ZN5ZXing4SizeISt6vectorIhSaIhEEEEDTcmcldtfp_4sizeEcvi_EERKT_(ptr noundef nonnull align 8 dereferenceable(24) %0) #2 comdat {
  %2 = alloca ptr, align 8
  %3 = alloca i64, align 8
  store ptr %0, ptr %2, align 8, !tbaa !123
  call void @llvm.lifetime.start.p0(i64 8, ptr %3) #18
  %4 = load ptr, ptr %2, align 8, !tbaa !123
  %5 = call noundef i64 @_ZNKSt6vectorIhSaIhEE4sizeEv(ptr noundef nonnull align 8 dereferenceable(24) %4) #20
  store i64 %5, ptr %3, align 8, !tbaa !39
  %6 = call noundef i32 @_ZN5ZXing11narrow_castIimEET_OT0_(ptr noundef nonnull align 8 dereferenceable(8) %3) #20
  call void @llvm.lifetime.end.p0(i64 8, ptr %3) #18
  ret i32 %6
}

; Function Attrs: mustprogress nounwind optsize uwtable
define linkonce_odr noundef i32 @_ZNK5ZXing8BitArray4sizeEv(ptr noundef nonnull align 8 dereferenceable(24) %0) #2 comdat align 2 personality ptr @__gxx_personality_v0 {
  %2 = alloca ptr, align 8
  store ptr %0, ptr %2, align 8, !tbaa !37
  %3 = load ptr, ptr %2, align 8
  %4 = getelementptr inbounds nuw %"class.ZXing::BitArray", ptr %3, i32 0, i32 0
  %5 = invoke noundef i32 @_ZN5ZXing4SizeISt6vectorIhSaIhEEEEDTcmcldtfp_4sizeEcvi_EERKT_(ptr noundef nonnull align 8 dereferenceable(24) %4) #19
          to label %6 unwind label %7

6:                                                ; preds = %1
  ret i32 %5

7:                                                ; preds = %1
  %8 = landingpad { ptr, i32 }
          catch ptr null
  %9 = extractvalue { ptr, i32 } %8, 0
  call void @__clang_call_terminate(ptr %9) #22
  unreachable
}

; Function Attrs: mustprogress optsize uwtable
define internal noundef i32 @_ZN5ZXing6QRCodeL19CalculateBitsNeededENS0_9CodecModeERKNS_8BitArrayES4_RKNS0_7VersionE(i32 noundef %0, ptr noundef nonnull align 8 dereferenceable(24) %1, ptr noundef nonnull align 8 dereferenceable(24) %2, ptr noundef nonnull align 8 dereferenceable(120) %3) #0 {
  %5 = alloca i32, align 4
  %6 = alloca ptr, align 8
  %7 = alloca ptr, align 8
  %8 = alloca ptr, align 8
  store i32 %0, ptr %5, align 4, !tbaa !18
  store ptr %1, ptr %6, align 8, !tbaa !37
  store ptr %2, ptr %7, align 8, !tbaa !37
  store ptr %3, ptr %8, align 8, !tbaa !20
  %9 = load ptr, ptr %6, align 8, !tbaa !37
  %10 = call noundef i32 @_ZNK5ZXing8BitArray4sizeEv(ptr noundef nonnull align 8 dereferenceable(24) %9) #20
  %11 = load i32, ptr %5, align 4, !tbaa !18
  %12 = load ptr, ptr %8, align 8, !tbaa !20
  %13 = call noundef i32 @_ZN5ZXing6QRCode18CharacterCountBitsENS0_9CodecModeERKNS0_7VersionE(i32 noundef %11, ptr noundef nonnull align 8 dereferenceable(120) %12) #19
  %14 = add nsw i32 %10, %13
  %15 = load ptr, ptr %7, align 8, !tbaa !37
  %16 = call noundef i32 @_ZNK5ZXing8BitArray4sizeEv(ptr noundef nonnull align 8 dereferenceable(24) %15) #20
  %17 = add nsw i32 %14, %16
  ret i32 %17
}

; Function Attrs: mustprogress optsize uwtable
define internal noundef nonnull align 8 dereferenceable(120) ptr @_ZN5ZXing6QRCodeL16RecommendVersionENS0_20ErrorCorrectionLevelENS0_9CodecModeERKNS_8BitArrayES5_(i32 noundef %0, i32 noundef %1, ptr noundef nonnull align 8 dereferenceable(24) %2, ptr noundef nonnull align 8 dereferenceable(24) %3) #0 {
  %5 = alloca i32, align 4
  %6 = alloca i32, align 4
  %7 = alloca ptr, align 8
  %8 = alloca ptr, align 8
  %9 = alloca i32, align 4
  %10 = alloca ptr, align 8
  %11 = alloca i32, align 4
  store i32 %0, ptr %5, align 4, !tbaa !8
  store i32 %1, ptr %6, align 4, !tbaa !18
  store ptr %2, ptr %7, align 8, !tbaa !37
  store ptr %3, ptr %8, align 8, !tbaa !37
  call void @llvm.lifetime.start.p0(i64 4, ptr %9) #18
  %12 = load i32, ptr %6, align 4, !tbaa !18
  %13 = load ptr, ptr %7, align 8, !tbaa !37
  %14 = load ptr, ptr %8, align 8, !tbaa !37
  %15 = call noundef ptr @_ZN5ZXing6QRCode7Version6Model2Ei(i32 noundef 1) #19
  %16 = call noundef i32 @_ZN5ZXing6QRCodeL19CalculateBitsNeededENS0_9CodecModeERKNS_8BitArrayES4_RKNS0_7VersionE(i32 noundef %12, ptr noundef nonnull align 8 dereferenceable(24) %13, ptr noundef nonnull align 8 dereferenceable(24) %14, ptr noundef nonnull align 8 dereferenceable(120) %15) #19
  store i32 %16, ptr %9, align 4, !tbaa !12
  call void @llvm.lifetime.start.p0(i64 8, ptr %10) #18
  %17 = load i32, ptr %9, align 4, !tbaa !12
  %18 = load i32, ptr %5, align 4, !tbaa !8
  %19 = call noundef nonnull align 8 dereferenceable(120) ptr @_ZN5ZXing6QRCodeL13ChooseVersionEiNS0_20ErrorCorrectionLevelE(i32 noundef %17, i32 noundef %18) #19
  store ptr %19, ptr %10, align 8, !tbaa !20
  call void @llvm.lifetime.start.p0(i64 4, ptr %11) #18
  %20 = load i32, ptr %6, align 4, !tbaa !18
  %21 = load ptr, ptr %7, align 8, !tbaa !37
  %22 = load ptr, ptr %8, align 8, !tbaa !37
  %23 = load ptr, ptr %10, align 8, !tbaa !20
  %24 = call noundef i32 @_ZN5ZXing6QRCodeL19CalculateBitsNeededENS0_9CodecModeERKNS_8BitArrayES4_RKNS0_7VersionE(i32 noundef %20, ptr noundef nonnull align 8 dereferenceable(24) %21, ptr noundef nonnull align 8 dereferenceable(24) %22, ptr noundef nonnull align 8 dereferenceable(120) %23) #19
  store i32 %24, ptr %11, align 4, !tbaa !12
  %25 = load i32, ptr %11, align 4, !tbaa !12
  %26 = load i32, ptr %5, align 4, !tbaa !8
  %27 = call noundef nonnull align 8 dereferenceable(120) ptr @_ZN5ZXing6QRCodeL13ChooseVersionEiNS0_20ErrorCorrectionLevelE(i32 noundef %25, i32 noundef %26) #19
  call void @llvm.lifetime.end.p0(i64 4, ptr %11) #18
  call void @llvm.lifetime.end.p0(i64 8, ptr %10) #18
  call void @llvm.lifetime.end.p0(i64 4, ptr %9) #18
  ret ptr %27
}