; Function Attrs: mustprogress optsize uwtable
define internal fastcc noundef nonnull align 8 dereferenceable(120) ptr @_ZN5ZXing6QRCodeL16RecommendVersionENS0_20ErrorCorrectionLevelENS0_9CodecModeERKNS_8BitArrayES5_(i32 noundef %0, i32 noundef %1, ptr noundef nonnull readonly align 8 captures(none) dereferenceable(24) %2, ptr noundef nonnull readonly align 8 captures(none) dereferenceable(24) %3) unnamed_addr #0 personality ptr @__gxx_personality_v0 {
  %5 = tail call noundef ptr @_ZN5ZXing6QRCode7Version6Model2Ei(i32 noundef 1) #20
  %.val11 = load ptr, ptr %2, align 8, !tbaa !28
  %6 = getelementptr inbounds nuw i8, ptr %2, i64 8
  %.val12 = load ptr, ptr %6, align 8, !tbaa !30
  %7 = ptrtoint ptr %.val12 to i64
  %8 = ptrtoint ptr %.val11 to i64
  %9 = sub i64 %7, %8
  %10 = trunc i64 %9 to i32
  %11 = tail call noundef i32 @_ZN5ZXing6QRCode18CharacterCountBitsENS0_9CodecModeERKNS0_7VersionE(i32 noundef %1, ptr noundef nonnull align 8 dereferenceable(120) %5) #20
  %12 = add nsw i32 %11, %10
  %13 = getelementptr inbounds nuw i8, ptr %3, i64 8
  %14 = load ptr, ptr %13, align 8, !tbaa !30
  %15 = load ptr, ptr %3, align 8, !tbaa !28
  %16 = ptrtoint ptr %14 to i64
  %17 = ptrtoint ptr %15 to i64
  %18 = sub i64 %16, %17
  %19 = trunc i64 %18 to i32
  %20 = add nsw i32 %12, %19
  %21 = tail call fastcc noundef nonnull align 8 dereferenceable(120) ptr @_ZN5ZXing6QRCodeL13ChooseVersionEiNS0_20ErrorCorrectionLevelE(i32 noundef %20, i32 noundef %0) #20
  %.val = load ptr, ptr %2, align 8, !tbaa !28
  %.val10 = load ptr, ptr %6, align 8, !tbaa !30
  %22 = ptrtoint ptr %.val10 to i64
  %23 = ptrtoint ptr %.val to i64
  %24 = sub i64 %22, %23
  %25 = trunc i64 %24 to i32
  %26 = tail call noundef i32 @_ZN5ZXing6QRCode18CharacterCountBitsENS0_9CodecModeERKNS0_7VersionE(i32 noundef %1, ptr noundef nonnull align 8 dereferenceable(120) %21) #20
  %27 = add nsw i32 %26, %25
  %28 = load ptr, ptr %13, align 8, !tbaa !30
  %29 = load ptr, ptr %3, align 8, !tbaa !28
  %30 = ptrtoint ptr %28 to i64
  %31 = ptrtoint ptr %29 to i64
  %32 = sub i64 %30, %31
  %33 = trunc i64 %32 to i32
  %34 = add nsw i32 %27, %33
  %35 = tail call fastcc noundef nonnull align 8 dereferenceable(120) ptr @_ZN5ZXing6QRCodeL13ChooseVersionEiNS0_20ErrorCorrectionLevelE(i32 noundef %34, i32 noundef %0) #20
  ret ptr %35
}